; Function Attrs: mustprogress nounwind uwtable
define noundef zeroext i1 @_ZNK32pxrInternal_v0_24__pxrReserved__22HdDataSourceLocatorSet10IntersectsERKNS_19HdDataSourceLocatorE(ptr noundef nonnull align 8 dereferenceable(456) %0, ptr nocapture noundef nonnull readonly align 8 dereferenceable(56) %1) local_unnamed_addr #2 align 2 {
  %3 = tail call noundef ptr @_ZNK32pxrInternal_v0_24__pxrReserved__22HdDataSourceLocatorSet18_FirstIntersectionERKNS_19HdDataSourceLocatorE(ptr noundef nonnull align 8 dereferenceable(456) %0, ptr noundef nonnull align 8 dereferenceable(56) %1)
  %4 = getelementptr inbounds nuw i8, ptr %0, i64 452
  %5 = load i32, ptr %4, align 4
  %6 = icmp ult i32 %5, 9
  %7 = load ptr, ptr %0, align 8
  %spec.select.i.i = select i1 %6, ptr %0, ptr %7
  %8 = getelementptr inbounds nuw i8, ptr %0, i64 448
  %9 = load i32, ptr %8, align 8
  %10 = zext i32 %9 to i64
  %11 = getelementptr inbounds %"class.pxrInternal_v0_24__pxrReserved__::HdDataSourceLocator", ptr %spec.select.i.i, i64 %10
  %12 = icmp ne ptr %3, %11
  ret i1 %12
}